; Function Attrs: nounwind uwtable
define dso_local { i8, ptr } @tbm_begin_iterate(ptr noundef %0, ptr noundef %1, i64 noundef %2) local_unnamed_addr #0 {
  %.not = icmp eq i64 %2, 0
  br i1 %.not, label %26, label %4

4:                                                ; preds = %3
  %5 = tail call ptr @palloc0(i64 noundef 630) #14
  %6 = tail call ptr @dsa_get_address(ptr noundef %1, i64 noundef %2) #14
  store ptr %6, ptr %5, align 8
  %7 = getelementptr inbounds nuw i8, ptr %6, i64 16
  %8 = load i64, ptr %7, align 8
  %9 = tail call ptr @dsa_get_address(ptr noundef %1, i64 noundef %8) #14
  %10 = getelementptr inbounds nuw i8, ptr %5, i64 8
  store ptr %9, ptr %10, align 8
  %11 = getelementptr inbounds nuw i8, ptr %6, i64 8
  %12 = load i32, ptr %11, align 8
  %.not.i = icmp eq i32 %12, 0
  br i1 %.not.i, label %18, label %13

13:                                               ; preds = %4
  %14 = getelementptr inbounds nuw i8, ptr %6, i64 24
  %15 = load i64, ptr %14, align 8
  %16 = tail call ptr @dsa_get_address(ptr noundef %1, i64 noundef %15) #14
  %17 = getelementptr inbounds nuw i8, ptr %5, i64 16
  store ptr %16, ptr %17, align 8
  br label %18

18:                                               ; preds = %13, %4
  %19 = getelementptr inbounds nuw i8, ptr %6, i64 12
  %20 = load i32, ptr %19, align 4
  %.not15.i = icmp eq i32 %20, 0
  br i1 %.not15.i, label %tbm_attach_shared_iterate.exit, label %21

21:                                               ; preds = %18
  %22 = getelementptr inbounds nuw i8, ptr %6, i64 32
  %23 = load i64, ptr %22, align 8
  %24 = tail call ptr @dsa_get_address(ptr noundef %1, i64 noundef %23) #14
  %25 = getelementptr inbounds nuw i8, ptr %5, i64 24
  store ptr %24, ptr %25, align 8
  br label %tbm_attach_shared_iterate.exit

26:                                               ; preds = %3
  %27 = tail call ptr @tbm_begin_private_iterate(ptr noundef %0)
  br label %tbm_attach_shared_iterate.exit

tbm_attach_shared_iterate.exit:                   ; preds = %21, %18, %26
  %.sroa.43.0 = phi ptr [ %27, %26 ], [ %5, %18 ], [ %5, %21 ]
  %.sroa.0.0 = phi i8 [ 0, %26 ], [ 1, %18 ], [ 1, %21 ]
  %.fca.0.insert = insertvalue { i8, ptr } poison, i8 %.sroa.0.0, 0
  %.fca.1.insert = insertvalue { i8, ptr } %.fca.0.insert, ptr %.sroa.43.0, 1
  ret { i8, ptr } %.fca.1.insert
}